; Function Attrs: nounwind uwtable
define ptr @Java_sun_awt_X11GraphicsEnvironment_getDisplayString(ptr noundef %0, ptr nocapture noundef readnone %1) local_unnamed_addr #0 {
  %3 = load ptr, ptr %0, align 8
  %4 = getelementptr inbounds i8, ptr %3, i64 1336
  %5 = load ptr, ptr %4, align 8
  %6 = load ptr, ptr @awt_display, align 8
  %7 = getelementptr inbounds i8, ptr %6, i64 216
  %8 = load ptr, ptr %7, align 8
  %9 = tail call ptr %5(ptr noundef nonnull %0, ptr noundef %8) #17
  ret ptr %9
}